target datalayout = "e-m:e-p270:32:32-p271:32:32-p272:64:64-i64:64-i128:128-f80:128-n8:16:32:64-S128"
target triple = "x86_64-pc-linux-gnu"

%struct.PJconsts = type { ptr, ptr, ptr, ptr, ptr, ptr, ptr, ptr, ptr, ptr, ptr, ptr, i32, ptr, ptr, ptr, ptr, ptr, ptr, ptr, ptr, double, double, double, double, double, double, double, double, double, double, double, double, double, double, double, double, double, double, double, double, double, double, i32, i32, i32, i32, i32, i32, i32, i32, i32, i32, i32, ptr, ptr, ptr, ptr, ptr, ptr, double, double, double, double, double, double, double, double, double, double, double, i32, [7 x double], i32, ptr, ptr, double, double, i32, [4 x i8], %"class.std::shared_ptr", i8, double, i8, %"class.std::__cxx11::basic_string", %"class.std::__cxx11::basic_string", %"class.std::__cxx11::basic_string", i8, %"class.std::vector", i32, %"class.std::vector.3", i32, i8, i8, i8, ptr }
%"class.std::shared_ptr" = type { %"class.std::__shared_ptr" }
%"class.std::__shared_ptr" = type { ptr, %"class.std::__shared_count" }
%"class.std::__shared_count" = type { ptr }
%"class.std::__cxx11::basic_string" = type { %"struct.std::__cxx11::basic_string<char>::_Alloc_hider", i64, %union.anon }
%"struct.std::__cxx11::basic_string<char>::_Alloc_hider" = type { ptr }
%union.anon = type { i64, [8 x i8] }
%"class.std::vector" = type { %"struct.std::_Vector_base" }
%"struct.std::_Vector_base" = type { %"struct.std::_Vector_base<osgeo::proj::operation::GridDescription, std::allocator<osgeo::proj::operation::GridDescription>>::_Vector_impl" }
%"struct.std::_Vector_base<osgeo::proj::operation::GridDescription, std::allocator<osgeo::proj::operation::GridDescription>>::_Vector_impl" = type { %"struct.std::_Vector_base<osgeo::proj::operation::GridDescription, std::allocator<osgeo::proj::operation::GridDescription>>::_Vector_impl_data" }
%"struct.std::_Vector_base<osgeo::proj::operation::GridDescription, std::allocator<osgeo::proj::operation::GridDescription>>::_Vector_impl_data" = type { ptr, ptr, ptr }
%"class.std::vector.3" = type { %"struct.std::_Vector_base.4" }
%"struct.std::_Vector_base.4" = type { %"struct.std::_Vector_base<PJCoordOperation, std::allocator<PJCoordOperation>>::_Vector_impl" }
%"struct.std::_Vector_base<PJCoordOperation, std::allocator<PJCoordOperation>>::_Vector_impl" = type { %"struct.std::_Vector_base<PJCoordOperation, std::allocator<PJCoordOperation>>::_Vector_impl_data" }
%"struct.std::_Vector_base<PJCoordOperation, std::allocator<PJCoordOperation>>::_Vector_impl_data" = type { ptr, ptr, ptr }
%union.PROJVALUE = type { double }
%"struct.(anonymous namespace)::pj_opaque_helmert" = type { %struct.PJ_XYZ, %struct.PJ_XYZ, %struct.PJ_XYZ, %struct.PJ_XYZ, %struct.PJ_OPK, %struct.PJ_OPK, %struct.PJ_OPK, double, double, double, double, double, double, [3 x [3 x double]], double, double, i32, i32, i32, i32 }
%struct.PJ_XYZ = type { double, double, double }
%struct.PJ_OPK = type { double, double, double }

@.str.4 = private unnamed_addr constant [8 x i8] c"towgs84\00", align 1
@.str.60 = private unnamed_addr constant [12 x i8] c"sconvention\00", align 1
@.str.61 = private unnamed_addr constant [39 x i8] c"helmert: missing 'convention' argument\00", align 1
@.str.62 = private unnamed_addr constant [16 x i8] c"position_vector\00", align 1
@.str.63 = private unnamed_addr constant [17 x i8] c"coordinate_frame\00", align 1
@.str.64 = private unnamed_addr constant [49 x i8] c"helmert: invalid value for 'convention' argument\00", align 1
@.str.65 = private unnamed_addr constant [69 x i8] c"helmert: towgs84 should only be used with convention=position_vector\00", align 1

; Function Attrs: mustprogress uwtable
define internal noundef ptr @_ZL15read_conventionP8PJconsts(ptr noundef %0) #0 {
  %2 = alloca ptr, align 8
  %3 = alloca ptr, align 8
  %4 = alloca ptr, align 8
  %5 = alloca ptr, align 8
  %6 = alloca %union.PROJVALUE, align 8
  %7 = alloca i32, align 4
  store ptr %0, ptr %3, align 8, !tbaa !3
  call void @llvm.lifetime.start.p0(i64 8, ptr %4) #10
  %8 = load ptr, ptr %3, align 8, !tbaa !3
  %9 = getelementptr inbounds nuw %struct.PJconsts, ptr %8, i32 0, i32 11
  %10 = load ptr, ptr %9, align 8, !tbaa !48
  store ptr %10, ptr %4, align 8, !tbaa !49
  %11 = load ptr, ptr %4, align 8, !tbaa !49
  %12 = getelementptr inbounds nuw %"struct.(anonymous namespace)::pj_opaque_helmert", ptr %11, i32 0, i32 16
  %13 = load i32, ptr %12, align 8, !tbaa !81
  %14 = icmp ne i32 %13, 0
  br i1 %14, label %70, label %15

15:                                               ; preds = %1
  call void @llvm.lifetime.start.p0(i64 8, ptr %5) #10
  call void @llvm.lifetime.start.p0(i64 8, ptr %6) #10
  %16 = load ptr, ptr %3, align 8, !tbaa !3
  %17 = getelementptr inbounds nuw %struct.PJconsts, ptr %16, i32 0, i32 0
  %18 = load ptr, ptr %17, align 8, !tbaa !51
  %19 = load ptr, ptr %3, align 8, !tbaa !3
  %20 = getelementptr inbounds nuw %struct.PJconsts, ptr %19, i32 0, i32 3
  %21 = load ptr, ptr %20, align 8, !tbaa !41
  %22 = call i64 @_Z8pj_paramP6pj_ctxP8ARG_listPKc(ptr noundef %18, ptr noundef %21, ptr noundef @.str.60)
  %23 = getelementptr inbounds nuw %union.PROJVALUE, ptr %6, i32 0, i32 0
  store i64 %22, ptr %23, align 8
  %24 = load ptr, ptr %6, align 8, !tbaa !52
  call void @llvm.lifetime.end.p0(i64 8, ptr %6) #10
  store ptr %24, ptr %5, align 8, !tbaa !102
  %25 = load ptr, ptr %5, align 8, !tbaa !102
  %26 = icmp ne ptr %25, null
  br i1 %26, label %31, label %27

27:                                               ; preds = %15
  %28 = load ptr, ptr %3, align 8, !tbaa !3
  call void (ptr, ptr, ...) @_Z14proj_log_errorPK8PJconstsPKcz(ptr noundef %28, ptr noundef @.str.61)
  %29 = load ptr, ptr %3, align 8, !tbaa !3
  %30 = call noundef ptr @_Z21pj_default_destructorP8PJconstsi(ptr noundef %29, i32 noundef 1026)
  store ptr %30, ptr %2, align 8
  store i32 1, ptr %7, align 4
  br label %67

31:                                               ; preds = %15
  %32 = load ptr, ptr %5, align 8, !tbaa !102
  %33 = call i32 @strcmp(ptr noundef %32, ptr noundef @.str.62) #12
  %34 = icmp eq i32 %33, 0
  br i1 %34, label %35, label %38

35:                                               ; preds = %31
  %36 = load ptr, ptr %4, align 8, !tbaa !49
  %37 = getelementptr inbounds nuw %"struct.(anonymous namespace)::pj_opaque_helmert", ptr %36, i32 0, i32 19
  store i32 1, ptr %37, align 4, !tbaa !86
  br label %50

38:                                               ; preds = %31
  %39 = load ptr, ptr %5, align 8, !tbaa !102
  %40 = call i32 @strcmp(ptr noundef %39, ptr noundef @.str.63) #12
  %41 = icmp eq i32 %40, 0
  br i1 %41, label %42, label %45

42:                                               ; preds = %38
  %43 = load ptr, ptr %4, align 8, !tbaa !49
  %44 = getelementptr inbounds nuw %"struct.(anonymous namespace)::pj_opaque_helmert", ptr %43, i32 0, i32 19
  store i32 0, ptr %44, align 4, !tbaa !86
  br label %49

45:                                               ; preds = %38
  %46 = load ptr, ptr %3, align 8, !tbaa !3
  call void (ptr, ptr, ...) @_Z14proj_log_errorPK8PJconstsPKcz(ptr noundef %46, ptr noundef @.str.64)
  %47 = load ptr, ptr %3, align 8, !tbaa !3
  %48 = call noundef ptr @_Z21pj_default_destructorP8PJconstsi(ptr noundef %47, i32 noundef 1027)
  store ptr %48, ptr %2, align 8
  store i32 1, ptr %7, align 4
  br label %67

49:                                               ; preds = %42
  br label %50

50:                                               ; preds = %49, %35
  %51 = load ptr, ptr %3, align 8, !tbaa !3
  %52 = getelementptr inbounds nuw %struct.PJconsts, ptr %51, i32 0, i32 3
  %53 = load ptr, ptr %52, align 8, !tbaa !41
  %54 = call noundef ptr @_Z15pj_param_existsP8ARG_listPKc(ptr noundef %53, ptr noundef @.str.4)
  %55 = icmp ne ptr %54, null
  br i1 %55, label %56, label %66

56:                                               ; preds = %50
  %57 = load ptr, ptr %4, align 8, !tbaa !49
  %58 = getelementptr inbounds nuw %"struct.(anonymous namespace)::pj_opaque_helmert", ptr %57, i32 0, i32 19
  %59 = load i32, ptr %58, align 4, !tbaa !86
  %60 = icmp ne i32 %59, 0
  br i1 %60, label %65, label %61

61:                                               ; preds = %56
  %62 = load ptr, ptr %3, align 8, !tbaa !3
  call void (ptr, ptr, ...) @_Z14proj_log_errorPK8PJconstsPKcz(ptr noundef %62, ptr noundef @.str.65)
  %63 = load ptr, ptr %3, align 8, !tbaa !3
  %64 = call noundef ptr @_Z21pj_default_destructorP8PJconstsi(ptr noundef %63, i32 noundef 1027)
  store ptr %64, ptr %2, align 8
  store i32 1, ptr %7, align 4
  br label %67

65:                                               ; preds = %56
  br label %66

66:                                               ; preds = %65, %50
  store i32 0, ptr %7, align 4
  br label %67

67:                                               ; preds = %66, %61, %45, %27
  call void @llvm.lifetime.end.p0(i64 8, ptr %5) #10
  %68 = load i32, ptr %7, align 4
  switch i32 %68, label %72 [
    i32 0, label %69
  ]

69:                                               ; preds = %67
  br label %70

70:                                               ; preds = %69, %1
  %71 = load ptr, ptr %3, align 8, !tbaa !3
  store ptr %71, ptr %2, align 8
  store i32 1, ptr %7, align 4
  br label %72

72:                                               ; preds = %70, %67
  call void @llvm.lifetime.end.p0(i64 8, ptr %4) #10
  %73 = load ptr, ptr %2, align 8
  ret ptr %73
}