; Function Attrs: mustprogress uwtable
define internal fastcc noundef ptr @_ZL15read_conventionP8PJconsts(ptr noundef %0) unnamed_addr #0 {
  %2 = getelementptr inbounds nuw i8, ptr %0, i64 88
  %3 = load ptr, ptr %2, align 8, !tbaa !47
  %4 = getelementptr inbounds nuw i8, ptr %3, i64 304
  %5 = load i32, ptr %4, align 8, !tbaa !77
  %.not = icmp eq i32 %5, 0
  br i1 %.not, label %6, label %.thread

6:                                                ; preds = %1
  %7 = load ptr, ptr %0, align 8, !tbaa !48
  %8 = getelementptr inbounds nuw i8, ptr %0, i64 24
  %9 = load ptr, ptr %8, align 8, !tbaa !40
  %10 = tail call i64 @_Z8pj_paramP6pj_ctxP8ARG_listPKc(ptr noundef %7, ptr noundef %9, ptr noundef nonnull @.str.60)
  %.sroa.0.0..sroa.0.0..cast = inttoptr i64 %10 to ptr
  %.not20 = icmp eq i64 %10, 0
  br i1 %.not20, label %.thread.sink.split, label %11

11:                                               ; preds = %6
  %12 = tail call i32 @strcmp(ptr noundef nonnull dereferenceable(1) %.sroa.0.0..sroa.0.0..cast, ptr noundef nonnull dereferenceable(16) @.str.62) #11
  %13 = icmp eq i32 %12, 0
  br i1 %13, label %17, label %14

14:                                               ; preds = %11
  %15 = tail call i32 @strcmp(ptr noundef nonnull dereferenceable(1) %.sroa.0.0..sroa.0.0..cast, ptr noundef nonnull dereferenceable(17) @.str.63) #11
  %16 = icmp eq i32 %15, 0
  br i1 %16, label %17, label %.thread.sink.split

17:                                               ; preds = %14, %11
  %.sink = phi i32 [ 1, %11 ], [ 0, %14 ]
  %18 = getelementptr inbounds nuw i8, ptr %3, i64 316
  store i32 %.sink, ptr %18, align 4, !tbaa !82
  %19 = load ptr, ptr %8, align 8, !tbaa !40
  %20 = tail call noundef ptr @_Z15pj_param_existsP8ARG_listPKc(ptr noundef %19, ptr noundef nonnull @.str.4)
  %.not21 = icmp eq ptr %20, null
  br i1 %.not21, label %.thread, label %21

21:                                               ; preds = %17
  %22 = getelementptr inbounds nuw i8, ptr %3, i64 316
  %23 = load i32, ptr %22, align 4, !tbaa !82
  %.not22 = icmp eq i32 %23, 0
  br i1 %.not22, label %.thread.sink.split, label %.thread

.thread.sink.split:                               ; preds = %21, %14, %6
  %.str.61.sink = phi ptr [ @.str.61, %6 ], [ @.str.64, %14 ], [ @.str.65, %21 ]
  %.sink26 = phi i32 [ 1026, %6 ], [ 1027, %14 ], [ 1027, %21 ]
  tail call void (ptr, ptr, ...) @_Z14proj_log_errorPK8PJconstsPKcz(ptr noundef nonnull %0, ptr noundef nonnull %.str.61.sink)
  %24 = tail call noundef ptr @_Z21pj_default_destructorP8PJconstsi(ptr noundef nonnull %0, i32 noundef %.sink26)
  br label %.thread

.thread:                                          ; preds = %.thread.sink.split, %1, %17, %21
  %.1 = phi ptr [ %0, %21 ], [ %0, %17 ], [ %0, %1 ], [ %24, %.thread.sink.split ]
  ret ptr %.1
}